target datalayout = "e-m:e-p270:32:32-p271:32:32-p272:64:64-i64:64-i128:128-f80:128-n8:16:32:64-S128"
target triple = "x86_64-pc-linux-gnu"

@g_ascii_table = external constant ptr, align 8
@.str.30 = private unnamed_addr constant [44 x i8] c"iseries: odd number of hex digits in a line\00", align 1
@.str.31 = private unnamed_addr constant [59 x i8] c"iseries: more packet data than the packet length indicated\00", align 1

; Function Attrs: null_pointer_is_valid sspstrong uwtable
define internal i32 @append_hex_digits(ptr noundef %0, i32 noundef %1, i32 noundef %2, ptr noundef %3, ptr noundef %4, ptr noundef %5) #0 {
  %7 = alloca i32, align 4
  %8 = alloca ptr, align 8
  %9 = alloca i32, align 4
  %10 = alloca i32, align 4
  %11 = alloca ptr, align 8
  %12 = alloca ptr, align 8
  %13 = alloca ptr, align 8
  %14 = alloca i32, align 4
  %15 = alloca i32, align 4
  %16 = alloca i32, align 4
  %17 = alloca i32, align 4
  %18 = alloca i8, align 1
  %19 = alloca i32, align 4
  store ptr %0, ptr %8, align 8
  store i32 %1, ptr %9, align 4
  store i32 %2, ptr %10, align 4
  store ptr %3, ptr %11, align 8
  store ptr %4, ptr %12, align 8
  store ptr %5, ptr %13, align 8
  call void @llvm.lifetime.start.p0(i64 4, ptr %14) #13
  call void @llvm.lifetime.start.p0(i64 4, ptr %15) #13
  call void @llvm.lifetime.start.p0(i64 4, ptr %16) #13
  call void @llvm.lifetime.start.p0(i64 4, ptr %17) #13
  call void @llvm.lifetime.start.p0(i64 1, ptr %18) #13
  store i8 0, ptr %18, align 1
  store i32 0, ptr %14, align 4
  %20 = load i32, ptr %9, align 4
  store i32 %20, ptr %15, align 4
  br label %21

21:                                               ; preds = %104, %6
  store i32 0, ptr %17, align 4
  br label %22

22:                                               ; preds = %85, %21
  %23 = load i32, ptr %17, align 4
  %24 = icmp ult i32 %23, 16
  br i1 %24, label %25, label %90

25:                                               ; preds = %22
  %26 = load ptr, ptr %11, align 8
  %27 = load i32, ptr %14, align 4
  %28 = sext i32 %27 to i64
  %29 = getelementptr i8, ptr %26, i64 %28
  %30 = load i8, ptr %29, align 1
  %31 = sext i8 %30 to i32
  %32 = and i32 %31, 255
  store i32 %32, ptr %16, align 4
  %33 = load i32, ptr %16, align 4
  %34 = icmp eq i32 %33, 0
  br i1 %34, label %47, label %35

35:                                               ; preds = %25
  %36 = load i32, ptr %16, align 4
  %37 = icmp eq i32 %36, 32
  br i1 %37, label %47, label %38

38:                                               ; preds = %35
  %39 = load i32, ptr %16, align 4
  %40 = icmp eq i32 %39, 42
  br i1 %40, label %47, label %41

41:                                               ; preds = %38
  %42 = load i32, ptr %16, align 4
  %43 = icmp eq i32 %42, 13
  br i1 %43, label %47, label %44

44:                                               ; preds = %41
  %45 = load i32, ptr %16, align 4
  %46 = icmp eq i32 %45, 10
  br i1 %46, label %47, label %48

47:                                               ; preds = %44, %41, %38, %35, %25
  br label %105

48:                                               ; preds = %44
  %49 = load ptr, ptr @g_ascii_table, align 8
  %50 = load i32, ptr %16, align 4
  %51 = trunc i32 %50 to i8
  %52 = zext i8 %51 to i64
  %53 = getelementptr i16, ptr %49, i64 %52
  %54 = load i16, ptr %53, align 2
  %55 = zext i16 %54 to i32
  %56 = and i32 %55, 1024
  %57 = icmp ne i32 %56, 0
  br i1 %57, label %58, label %68

58:                                               ; preds = %48
  %59 = load ptr, ptr @g_ascii_table, align 8
  %60 = load i32, ptr %16, align 4
  %61 = trunc i32 %60 to i8
  %62 = zext i8 %61 to i64
  %63 = getelementptr i16, ptr %59, i64 %62
  %64 = load i16, ptr %63, align 2
  %65 = zext i16 %64 to i32
  %66 = and i32 %65, 32
  %67 = icmp ne i32 %66, 0
  br i1 %67, label %68, label %70

68:                                               ; preds = %58, %48
  %69 = load i32, ptr %9, align 4
  store i32 %69, ptr %7, align 4
  store i32 1, ptr %19, align 4
  br label %122

70:                                               ; preds = %58
  %71 = load i32, ptr %15, align 4
  %72 = load i32, ptr %10, align 4
  %73 = icmp sge i32 %71, %72
  br i1 %73, label %74, label %75

74:                                               ; preds = %70
  store i8 1, ptr %18, align 1
  br label %84

75:                                               ; preds = %70
  %76 = load i32, ptr %16, align 4
  %77 = trunc i32 %76 to i8
  %78 = load ptr, ptr %8, align 8
  %79 = load i32, ptr %15, align 4
  %80 = sext i32 %79 to i64
  %81 = getelementptr i8, ptr %78, i64 %80
  store i8 %77, ptr %81, align 1
  %82 = load i32, ptr %15, align 4
  %83 = add i32 %82, 1
  store i32 %83, ptr %15, align 4
  br label %84

84:                                               ; preds = %75, %74
  br label %85

85:                                               ; preds = %84
  %86 = load i32, ptr %17, align 4
  %87 = add i32 %86, 1
  store i32 %87, ptr %17, align 4
  %88 = load i32, ptr %14, align 4
  %89 = add i32 %88, 1
  store i32 %89, ptr %14, align 4
  br label %22, !llvm.loop !17

90:                                               ; preds = %22
  br label %91

91:                                               ; preds = %101, %90
  %92 = load ptr, ptr %11, align 8
  %93 = load i32, ptr %14, align 4
  %94 = sext i32 %93 to i64
  %95 = getelementptr i8, ptr %92, i64 %94
  %96 = load i8, ptr %95, align 1
  %97 = sext i8 %96 to i32
  %98 = and i32 %97, 255
  %99 = icmp eq i32 %98, 32
  br i1 %99, label %100, label %104

100:                                              ; preds = %91
  br label %101

101:                                              ; preds = %100
  %102 = load i32, ptr %14, align 4
  %103 = add i32 %102, 1
  store i32 %103, ptr %14, align 4
  br label %91, !llvm.loop !18

104:                                              ; preds = %91
  br label %21

105:                                              ; preds = %47
  %106 = load i32, ptr %17, align 4
  %107 = urem i32 %106, 2
  %108 = icmp ne i32 %107, 0
  br i1 %108, label %109, label %113

109:                                              ; preds = %105
  %110 = load ptr, ptr %12, align 8
  store i32 -13, ptr %110, align 4
  %111 = call noalias ptr @g_strdup(ptr noundef @.str.30)
  %112 = load ptr, ptr %13, align 8
  store ptr %111, ptr %112, align 8
  store i32 -1, ptr %7, align 4
  store i32 1, ptr %19, align 4
  br label %122

113:                                              ; preds = %105
  %114 = load i8, ptr %18, align 1, !range !10, !noundef !11
  %115 = trunc i8 %114 to i1
  br i1 %115, label %116, label %120

116:                                              ; preds = %113
  %117 = load ptr, ptr %12, align 8
  store i32 -13, ptr %117, align 4
  %118 = call noalias ptr @g_strdup(ptr noundef @.str.31)
  %119 = load ptr, ptr %13, align 8
  store ptr %118, ptr %119, align 8
  store i32 -1, ptr %7, align 4
  store i32 1, ptr %19, align 4
  br label %122

120:                                              ; preds = %113
  %121 = load i32, ptr %15, align 4
  store i32 %121, ptr %7, align 4
  store i32 1, ptr %19, align 4
  br label %122

122:                                              ; preds = %120, %116, %109, %68
  call void @llvm.lifetime.end.p0(i64 1, ptr %18) #13
  call void @llvm.lifetime.end.p0(i64 4, ptr %17) #13
  call void @llvm.lifetime.end.p0(i64 4, ptr %16) #13
  call void @llvm.lifetime.end.p0(i64 4, ptr %15) #13
  call void @llvm.lifetime.end.p0(i64 4, ptr %14) #13
  %123 = load i32, ptr %7, align 4
  ret i32 %123
}