; Function Attrs: null_pointer_is_valid sspstrong uwtable
define internal fastcc i32 @append_hex_digits(ptr noundef writeonly captures(none) %0, i32 noundef range(i32 0, -1) %1, i32 noundef %2, ptr noundef readonly captures(none) %3, ptr noundef writeonly captures(none) %4, ptr noundef writeonly captures(none) %5) unnamed_addr #0 {
  %7 = load ptr, ptr @g_ascii_table, align 8
  br label %.loopexit

.loopexit:                                        ; preds = %.loopexit.backedge, %6
  %.161 = phi i1 [ false, %6 ], [ %.2, %.loopexit.backedge ]
  %.03760 = phi i32 [ 0, %6 ], [ %.03760.be, %.loopexit.backedge ]
  %.14059 = phi i32 [ %1, %6 ], [ %.241, %.loopexit.backedge ]
  %.14358 = phi i32 [ 0, %6 ], [ %.14358.be, %.loopexit.backedge ]
  %8 = sext i32 %.14358 to i64
  %9 = getelementptr i8, ptr %3, i64 %8
  %10 = load i8, ptr %9, align 1
  switch i8 %10, label %11 [
    i8 42, label %29
    i8 32, label %29
    i8 13, label %29
    i8 10, label %29
    i8 0, label %29
  ]

11:                                               ; preds = %.loopexit
  %12 = zext i8 %10 to i64
  %13 = getelementptr i16, ptr %7, i64 %12
  %14 = load i16, ptr %13, align 2
  %15 = and i16 %14, 1056
  %or.cond = icmp eq i16 %15, 1024
  br i1 %or.cond, label %16, label %.loopexit49

16:                                               ; preds = %11
  %.not47 = icmp slt i32 %.14059, %2
  br i1 %.not47, label %17, label %21

17:                                               ; preds = %16
  %18 = sext i32 %.14059 to i64
  %19 = getelementptr i8, ptr %0, i64 %18
  store i8 %10, ptr %19, align 1
  %20 = add nsw i32 %.14059, 1
  br label %21

21:                                               ; preds = %16, %17
  %.241 = phi i32 [ %20, %17 ], [ %.14059, %16 ]
  %.2 = phi i1 [ %.161, %17 ], [ true, %16 ]
  %22 = add nuw nsw i32 %.03760, 1
  %23 = add i32 %.14358, 1
  %exitcond.not = icmp eq i32 %22, 16
  br i1 %exitcond.not, label %.preheader, label %.loopexit.backedge

.loopexit.backedge:                               ; preds = %.preheader, %21
  %.03760.be = phi i32 [ %22, %21 ], [ 0, %.preheader ]
  %.14358.be = phi i32 [ %23, %21 ], [ %.244, %.preheader ]
  br label %.loopexit, !llvm.loop !28

.preheader:                                       ; preds = %21, %.preheader
  %.244 = phi i32 [ %28, %.preheader ], [ %23, %21 ]
  %24 = sext i32 %.244 to i64
  %25 = getelementptr i8, ptr %3, i64 %24
  %26 = load i8, ptr %25, align 1
  %27 = icmp eq i8 %26, 32
  %28 = add i32 %.244, 1
  br i1 %27, label %.preheader, label %.loopexit.backedge, !llvm.loop !28

29:                                               ; preds = %.loopexit, %.loopexit, %.loopexit, %.loopexit, %.loopexit
  %30 = and i32 %.03760, 1
  %.not48 = icmp ne i32 %30, 0
  %brmerge = select i1 %.not48, i1 true, i1 %.161
  br i1 %brmerge, label %.loopexit49.sink.split, label %.loopexit49

.loopexit49.sink.split:                           ; preds = %29
  %.str.30.mux = select i1 %.not48, ptr @.str.30, ptr @.str.31
  store i32 -13, ptr %4, align 4
  %31 = tail call noalias ptr @g_strdup(ptr noundef nonnull %.str.30.mux)
  store ptr %31, ptr %5, align 8
  br label %.loopexit49

.loopexit49:                                      ; preds = %11, %29, %.loopexit49.sink.split
  %.038 = phi i32 [ -1, %.loopexit49.sink.split ], [ %.14059, %29 ], [ %1, %11 ]
  ret i32 %.038
}